target datalayout = "e-m:e-p270:32:32-p271:32:32-p272:64:64-i64:64-i128:128-f80:128-n8:16:32:64-S128"
target triple = "x86_64-unknown-linux-gnu"

%"class.icu_75::AnyTransliterator" = type <{ %"class.icu_75::Transliterator.base", [4 x i8], ptr, %"class.icu_75::UnicodeString", i32, [4 x i8] }>
%"class.icu_75::Transliterator.base" = type <{ %"class.icu_75::UObject", %"class.icu_75::UnicodeString", ptr, i32 }>
%"class.icu_75::UObject" = type { ptr }
%"class.icu_75::UnicodeString" = type { %"class.icu_75::Replaceable", %"union.icu_75::UnicodeString::StackBufferOrFields" }
%"class.icu_75::Replaceable" = type { %"class.icu_75::UObject" }
%"union.icu_75::UnicodeString::StackBufferOrFields" = type { %struct.anon.0, [32 x i8] }
%struct.anon.0 = type { i16, i32, i32, ptr }

; Function Attrs: mustprogress nounwind uwtable
define internal noundef signext i8 @_ZL9U_FAILURE10UErrorCode(i32 noundef %code) #0 {
entry:
  %code.addr = alloca i32, align 4
  store i32 %code, ptr %code.addr, align 4
  %0 = load i32, ptr %code.addr, align 4
  %cmp = icmp sgt i32 %0, 0
  %conv = zext i1 %cmp to i8
  ret i8 %conv
}

; Function Attrs: mustprogress uwtable
define void @_ZN6icu_7517AnyTransliteratorC2ERKS0_(ptr noundef nonnull align 8 dereferenceable(164) %this, ptr noundef nonnull align 8 dereferenceable(164) %o) unnamed_addr #1 align 2 personality ptr @__gxx_personality_v0 {
entry:
  %this.addr = alloca ptr, align 8
  %o.addr = alloca ptr, align 8
  %exn.slot = alloca ptr, align 8
  %ehselector.slot = alloca i32, align 4
  %ec = alloca i32, align 4
  store ptr %this, ptr %this.addr, align 8
  store ptr %o, ptr %o.addr, align 8
  %this1 = load ptr, ptr %this.addr, align 8
  %0 = load ptr, ptr %o.addr, align 8
  call void @_ZN6icu_7514TransliteratorC2ERKS0_(ptr noundef nonnull align 8 dereferenceable(84) %this1, ptr noundef nonnull align 8 dereferenceable(84) %0)
  store ptr getelementptr inbounds ({ [19 x ptr] }, ptr @_ZTVN6icu_7517AnyTransliteratorE, i32 0, i32 0, i32 2), ptr %this1, align 8
  %target = getelementptr inbounds %"class.icu_75::AnyTransliterator", ptr %this1, i32 0, i32 3
  %1 = load ptr, ptr %o.addr, align 8
  %target2 = getelementptr inbounds %"class.icu_75::AnyTransliterator", ptr %1, i32 0, i32 3
  invoke void @_ZN6icu_7513UnicodeStringC1ERKS0_(ptr noundef nonnull align 8 dereferenceable(64) %target, ptr noundef nonnull align 8 dereferenceable(64) %target2)
          to label %invoke.cont unwind label %lpad

invoke.cont:                                      ; preds = %entry
  %targetScript = getelementptr inbounds %"class.icu_75::AnyTransliterator", ptr %this1, i32 0, i32 4
  %2 = load ptr, ptr %o.addr, align 8
  %targetScript3 = getelementptr inbounds %"class.icu_75::AnyTransliterator", ptr %2, i32 0, i32 4
  %3 = load i32, ptr %targetScript3, align 8
  store i32 %3, ptr %targetScript, align 8
  store i32 0, ptr %ec, align 4
  %call = invoke ptr @uhash_openSize_75(ptr noundef @uhash_hashLong_75, ptr noundef @uhash_compareLong_75, ptr noundef null, i32 noundef 7, ptr noundef %ec)
          to label %invoke.cont5 unwind label %lpad4

invoke.cont5:                                     ; preds = %invoke.cont
  %cache = getelementptr inbounds %"class.icu_75::AnyTransliterator", ptr %this1, i32 0, i32 2
  store ptr %call, ptr %cache, align 8
  %4 = load i32, ptr %ec, align 4
  %call7 = invoke noundef signext i8 @_ZL9U_FAILURE10UErrorCode(i32 noundef %4)
          to label %invoke.cont6 unwind label %lpad4

invoke.cont6:                                     ; preds = %invoke.cont5
  %tobool = icmp ne i8 %call7, 0
  br i1 %tobool, label %if.then, label %if.end

if.then:                                          ; preds = %invoke.cont6
  br label %invoke.cont9

lpad:                                             ; preds = %entry
  %5 = landingpad { ptr, i32 }
          cleanup
  %6 = extractvalue { ptr, i32 } %5, 0
  store ptr %6, ptr %exn.slot, align 8
  %7 = extractvalue { ptr, i32 } %5, 1
  store i32 %7, ptr %ehselector.slot, align 4
  br label %ehcleanup

lpad4:                                            ; preds = %if.end, %invoke.cont5, %invoke.cont
  %8 = landingpad { ptr, i32 }
          cleanup
  %9 = extractvalue { ptr, i32 } %8, 0
  store ptr %9, ptr %exn.slot, align 8
  %10 = extractvalue { ptr, i32 } %8, 1
  store i32 %10, ptr %ehselector.slot, align 4
  call void @_ZN6icu_7513UnicodeStringD1Ev(ptr noundef nonnull align 8 dereferenceable(64) %target) #5
  br label %ehcleanup

if.end:                                           ; preds = %invoke.cont6
  %cache8 = getelementptr inbounds %"class.icu_75::AnyTransliterator", ptr %this1, i32 0, i32 2
  %11 = load ptr, ptr %cache8, align 8
  %call10 = invoke ptr @uhash_setValueDeleter_75(ptr noundef %11, ptr noundef @_ZL21_deleteTransliteratorPv)
          to label %invoke.cont9 unwind label %lpad4

invoke.cont9:                                     ; preds = %if.end, %if.then
  ret void

ehcleanup:                                        ; preds = %lpad4, %lpad
  call void @_ZN6icu_7514TransliteratorD2Ev(ptr noundef nonnull align 8 dereferenceable(84) %this1) #5
  br label %eh.resume

eh.resume:                                        ; preds = %ehcleanup
  %exn = load ptr, ptr %exn.slot, align 8
  %sel = load i32, ptr %ehselector.slot, align 4
  %lpad.val = insertvalue { ptr, i32 } poison, ptr %exn, 0
  %lpad.val11 = insertvalue { ptr, i32 } %lpad.val, i32 %sel, 1
  resume { ptr, i32 } %lpad.val11
}