; Function Attrs: mustprogress uwtable
define void @_ZN6icu_7517AnyTransliteratorC2ERKS0_(ptr noundef nonnull align 8 dereferenceable(164) %this, ptr noundef nonnull align 8 dereferenceable(164) %o) unnamed_addr #1 align 2 personality ptr @__gxx_personality_v0 {
entry:
  %ec = alloca i32, align 4
  tail call void @_ZN6icu_7514TransliteratorC2ERKS0_(ptr noundef nonnull align 8 dereferenceable(84) %this, ptr noundef nonnull align 8 dereferenceable(84) %o)
  store ptr getelementptr inbounds ({ [19 x ptr] }, ptr @_ZTVN6icu_7517AnyTransliteratorE, i64 0, i32 0, i64 2), ptr %this, align 8
  %target = getelementptr inbounds i8, ptr %this, i64 96
  %target2 = getelementptr inbounds i8, ptr %o, i64 96
  invoke void @_ZN6icu_7513UnicodeStringC1ERKS0_(ptr noundef nonnull align 8 dereferenceable(64) %target, ptr noundef nonnull align 8 dereferenceable(64) %target2)
          to label %invoke.cont unwind label %lpad

invoke.cont:                                      ; preds = %entry
  %targetScript = getelementptr inbounds i8, ptr %this, i64 160
  %targetScript3 = getelementptr inbounds i8, ptr %o, i64 160
  %0 = load i32, ptr %targetScript3, align 8
  store i32 %0, ptr %targetScript, align 8
  store i32 0, ptr %ec, align 4
  %call = invoke ptr @uhash_openSize_75(ptr noundef nonnull @uhash_hashLong_75, ptr noundef nonnull @uhash_compareLong_75, ptr noundef null, i32 noundef 7, ptr noundef nonnull %ec)
          to label %invoke.cont5 unwind label %lpad4

invoke.cont5:                                     ; preds = %invoke.cont
  %cache = getelementptr inbounds i8, ptr %this, i64 88
  store ptr %call, ptr %cache, align 8
  %1 = load i32, ptr %ec, align 4
  %cmp.i = icmp slt i32 %1, 1
  br i1 %cmp.i, label %if.end, label %invoke.cont9

lpad:                                             ; preds = %entry
  %2 = landingpad { ptr, i32 }
          cleanup
  br label %ehcleanup

lpad4:                                            ; preds = %if.end, %invoke.cont
  %3 = landingpad { ptr, i32 }
          cleanup
  call void @_ZN6icu_7513UnicodeStringD1Ev(ptr noundef nonnull align 8 dereferenceable(64) %target) #9
  br label %ehcleanup

if.end:                                           ; preds = %invoke.cont5
  %call10 = invoke ptr @uhash_setValueDeleter_75(ptr noundef %call, ptr noundef nonnull @_ZL21_deleteTransliteratorPv)
          to label %invoke.cont9 unwind label %lpad4

invoke.cont9:                                     ; preds = %invoke.cont5, %if.end
  ret void

ehcleanup:                                        ; preds = %lpad4, %lpad
  %.pn = phi { ptr, i32 } [ %3, %lpad4 ], [ %2, %lpad ]
  call void @_ZN6icu_7514TransliteratorD2Ev(ptr noundef nonnull align 8 dereferenceable(84) %this) #9
  resume { ptr, i32 } %.pn
}